; Function Attrs: mustprogress nounwind uwtable
define internal fastcc void @_ZN8facebook5velox9functions12_GLOBAL__N_112MergeResultsD2Ev(ptr nocapture noundef nonnull readonly align 8 dereferenceable(112) %this) unnamed_addr #2 align 2 personality ptr @__gxx_personality_v0 {
entry:
  %rightKeyIndices = getelementptr inbounds i8, ptr %this, i64 96
  %0 = load ptr, ptr %rightKeyIndices, align 8
  %cmp.not.i = icmp eq ptr %0, null
  br i1 %cmp.not.i, label %_ZN5boost13intrusive_ptrIN8facebook5velox6BufferEED2Ev.exit, label %if.then.i

if.then.i:                                        ; preds = %entry
  %referenceCount_.i.i.i = getelementptr inbounds i8, ptr %0, i64 40
  %1 = atomicrmw sub ptr %referenceCount_.i.i.i, i32 1 seq_cst, align 4
  %cmp.i.i.i = icmp eq i32 %1, 1
  br i1 %cmp.i.i.i, label %if.then.i.i.i, label %_ZN5boost13intrusive_ptrIN8facebook5velox6BufferEED2Ev.exit

if.then.i.i.i:                                    ; preds = %if.then.i
  %vtable.i.i.i = load ptr, ptr %0, align 8
  %vfn.i.i.i = getelementptr inbounds i8, ptr %vtable.i.i.i, i64 64
  %2 = load ptr, ptr %vfn.i.i.i, align 8
  invoke void %2(ptr noundef nonnull align 8 dereferenceable(64) %0)
          to label %.noexc.i unwind label %terminate.lpad.i

.noexc.i:                                         ; preds = %if.then.i.i.i
  %pool_.i.i.i = getelementptr inbounds i8, ptr %0, i64 8
  %3 = load ptr, ptr %pool_.i.i.i, align 8
  %tobool.not.i.i.i = icmp eq ptr %3, null
  %vtable5.i.i.i = load ptr, ptr %0, align 8
  br i1 %tobool.not.i.i.i, label %delete.notnull.i.i.i, label %if.then2.i.i.i

if.then2.i.i.i:                                   ; preds = %.noexc.i
  %vfn4.i.i.i = getelementptr inbounds i8, ptr %vtable5.i.i.i, i64 48
  %4 = load ptr, ptr %vfn4.i.i.i, align 8
  invoke void %4(ptr noundef nonnull align 8 dereferenceable(64) %0)
          to label %_ZN5boost13intrusive_ptrIN8facebook5velox6BufferEED2Ev.exit unwind label %terminate.lpad.i

delete.notnull.i.i.i:                             ; preds = %.noexc.i
  %vfn6.i.i.i = getelementptr inbounds i8, ptr %vtable5.i.i.i, i64 8
  %5 = load ptr, ptr %vfn6.i.i.i, align 8
  tail call void %5(ptr noundef nonnull align 8 dereferenceable(64) %0) #22
  br label %_ZN5boost13intrusive_ptrIN8facebook5velox6BufferEED2Ev.exit

terminate.lpad.i:                                 ; preds = %if.then2.i.i.i, %if.then.i.i.i
  %6 = landingpad { ptr, i32 }
          catch ptr null
  %7 = extractvalue { ptr, i32 } %6, 0
  tail call void @__clang_call_terminate(ptr %7) #23
  unreachable

_ZN5boost13intrusive_ptrIN8facebook5velox6BufferEED2Ev.exit: ; preds = %entry, %if.then.i, %if.then2.i.i.i, %delete.notnull.i.i.i
  %rightKeyNulls = getelementptr inbounds i8, ptr %this, i64 80
  %8 = load ptr, ptr %rightKeyNulls, align 8
  %cmp.not.i1 = icmp eq ptr %8, null
  br i1 %cmp.not.i1, label %_ZN5boost13intrusive_ptrIN8facebook5velox6BufferEED2Ev.exit17, label %if.then.i2

if.then.i2:                                       ; preds = %_ZN5boost13intrusive_ptrIN8facebook5velox6BufferEED2Ev.exit
  %referenceCount_.i.i.i3 = getelementptr inbounds i8, ptr %8, i64 40
  %9 = atomicrmw sub ptr %referenceCount_.i.i.i3, i32 1 seq_cst, align 4
  %cmp.i.i.i4 = icmp eq i32 %9, 1
  br i1 %cmp.i.i.i4, label %if.then.i.i.i5, label %_ZN5boost13intrusive_ptrIN8facebook5velox6BufferEED2Ev.exit17

if.then.i.i.i5:                                   ; preds = %if.then.i2
  %vtable.i.i.i6 = load ptr, ptr %8, align 8
  %vfn.i.i.i7 = getelementptr inbounds i8, ptr %vtable.i.i.i6, i64 64
  %10 = load ptr, ptr %vfn.i.i.i7, align 8
  invoke void %10(ptr noundef nonnull align 8 dereferenceable(64) %8)
          to label %.noexc.i9 unwind label %terminate.lpad.i8

.noexc.i9:                                        ; preds = %if.then.i.i.i5
  %pool_.i.i.i10 = getelementptr inbounds i8, ptr %8, i64 8
  %11 = load ptr, ptr %pool_.i.i.i10, align 8
  %tobool.not.i.i.i11 = icmp eq ptr %11, null
  %vtable5.i.i.i12 = load ptr, ptr %8, align 8
  br i1 %tobool.not.i.i.i11, label %delete.notnull.i.i.i15, label %if.then2.i.i.i13

if.then2.i.i.i13:                                 ; preds = %.noexc.i9
  %vfn4.i.i.i14 = getelementptr inbounds i8, ptr %vtable5.i.i.i12, i64 48
  %12 = load ptr, ptr %vfn4.i.i.i14, align 8
  invoke void %12(ptr noundef nonnull align 8 dereferenceable(64) %8)
          to label %_ZN5boost13intrusive_ptrIN8facebook5velox6BufferEED2Ev.exit17 unwind label %terminate.lpad.i8

delete.notnull.i.i.i15:                           ; preds = %.noexc.i9
  %vfn6.i.i.i16 = getelementptr inbounds i8, ptr %vtable5.i.i.i12, i64 8
  %13 = load ptr, ptr %vfn6.i.i.i16, align 8
  tail call void %13(ptr noundef nonnull align 8 dereferenceable(64) %8) #22
  br label %_ZN5boost13intrusive_ptrIN8facebook5velox6BufferEED2Ev.exit17

terminate.lpad.i8:                                ; preds = %if.then2.i.i.i13, %if.then.i.i.i5
  %14 = landingpad { ptr, i32 }
          catch ptr null
  %15 = extractvalue { ptr, i32 } %14, 0
  tail call void @__clang_call_terminate(ptr %15) #23
  unreachable

_ZN5boost13intrusive_ptrIN8facebook5velox6BufferEED2Ev.exit17: ; preds = %_ZN5boost13intrusive_ptrIN8facebook5velox6BufferEED2Ev.exit, %if.then.i2, %if.then2.i.i.i13, %delete.notnull.i.i.i15
  %leftKeyIndices = getelementptr inbounds i8, ptr %this, i64 64
  %16 = load ptr, ptr %leftKeyIndices, align 8
  %cmp.not.i18 = icmp eq ptr %16, null
  br i1 %cmp.not.i18, label %_ZN5boost13intrusive_ptrIN8facebook5velox6BufferEED2Ev.exit34, label %if.then.i19

if.then.i19:                                      ; preds = %_ZN5boost13intrusive_ptrIN8facebook5velox6BufferEED2Ev.exit17
  %referenceCount_.i.i.i20 = getelementptr inbounds i8, ptr %16, i64 40
  %17 = atomicrmw sub ptr %referenceCount_.i.i.i20, i32 1 seq_cst, align 4
  %cmp.i.i.i21 = icmp eq i32 %17, 1
  br i1 %cmp.i.i.i21, label %if.then.i.i.i22, label %_ZN5boost13intrusive_ptrIN8facebook5velox6BufferEED2Ev.exit34

if.then.i.i.i22:                                  ; preds = %if.then.i19
  %vtable.i.i.i23 = load ptr, ptr %16, align 8
  %vfn.i.i.i24 = getelementptr inbounds i8, ptr %vtable.i.i.i23, i64 64
  %18 = load ptr, ptr %vfn.i.i.i24, align 8
  invoke void %18(ptr noundef nonnull align 8 dereferenceable(64) %16)
          to label %.noexc.i26 unwind label %terminate.lpad.i25

.noexc.i26:                                       ; preds = %if.then.i.i.i22
  %pool_.i.i.i27 = getelementptr inbounds i8, ptr %16, i64 8
  %19 = load ptr, ptr %pool_.i.i.i27, align 8
  %tobool.not.i.i.i28 = icmp eq ptr %19, null
  %vtable5.i.i.i29 = load ptr, ptr %16, align 8
  br i1 %tobool.not.i.i.i28, label %delete.notnull.i.i.i32, label %if.then2.i.i.i30

if.then2.i.i.i30:                                 ; preds = %.noexc.i26
  %vfn4.i.i.i31 = getelementptr inbounds i8, ptr %vtable5.i.i.i29, i64 48
  %20 = load ptr, ptr %vfn4.i.i.i31, align 8
  invoke void %20(ptr noundef nonnull align 8 dereferenceable(64) %16)
          to label %_ZN5boost13intrusive_ptrIN8facebook5velox6BufferEED2Ev.exit34 unwind label %terminate.lpad.i25

delete.notnull.i.i.i32:                           ; preds = %.noexc.i26
  %vfn6.i.i.i33 = getelementptr inbounds i8, ptr %vtable5.i.i.i29, i64 8
  %21 = load ptr, ptr %vfn6.i.i.i33, align 8
  tail call void %21(ptr noundef nonnull align 8 dereferenceable(64) %16) #22
  br label %_ZN5boost13intrusive_ptrIN8facebook5velox6BufferEED2Ev.exit34

terminate.lpad.i25:                               ; preds = %if.then2.i.i.i30, %if.then.i.i.i22
  %22 = landingpad { ptr, i32 }
          catch ptr null
  %23 = extractvalue { ptr, i32 } %22, 0
  tail call void @__clang_call_terminate(ptr %23) #23
  unreachable

_ZN5boost13intrusive_ptrIN8facebook5velox6BufferEED2Ev.exit34: ; preds = %_ZN5boost13intrusive_ptrIN8facebook5velox6BufferEED2Ev.exit17, %if.then.i19, %if.then2.i.i.i30, %delete.notnull.i.i.i32
  %leftKeyNulls = getelementptr inbounds i8, ptr %this, i64 48
  %24 = load ptr, ptr %leftKeyNulls, align 8
  %cmp.not.i35 = icmp eq ptr %24, null
  br i1 %cmp.not.i35, label %_ZN5boost13intrusive_ptrIN8facebook5velox6BufferEED2Ev.exit51, label %if.then.i36

if.then.i36:                                      ; preds = %_ZN5boost13intrusive_ptrIN8facebook5velox6BufferEED2Ev.exit34
  %referenceCount_.i.i.i37 = getelementptr inbounds i8, ptr %24, i64 40
  %25 = atomicrmw sub ptr %referenceCount_.i.i.i37, i32 1 seq_cst, align 4
  %cmp.i.i.i38 = icmp eq i32 %25, 1
  br i1 %cmp.i.i.i38, label %if.then.i.i.i39, label %_ZN5boost13intrusive_ptrIN8facebook5velox6BufferEED2Ev.exit51

if.then.i.i.i39:                                  ; preds = %if.then.i36
  %vtable.i.i.i40 = load ptr, ptr %24, align 8
  %vfn.i.i.i41 = getelementptr inbounds i8, ptr %vtable.i.i.i40, i64 64
  %26 = load ptr, ptr %vfn.i.i.i41, align 8
  invoke void %26(ptr noundef nonnull align 8 dereferenceable(64) %24)
          to label %.noexc.i43 unwind label %terminate.lpad.i42

.noexc.i43:                                       ; preds = %if.then.i.i.i39
  %pool_.i.i.i44 = getelementptr inbounds i8, ptr %24, i64 8
  %27 = load ptr, ptr %pool_.i.i.i44, align 8
  %tobool.not.i.i.i45 = icmp eq ptr %27, null
  %vtable5.i.i.i46 = load ptr, ptr %24, align 8
  br i1 %tobool.not.i.i.i45, label %delete.notnull.i.i.i49, label %if.then2.i.i.i47

if.then2.i.i.i47:                                 ; preds = %.noexc.i43
  %vfn4.i.i.i48 = getelementptr inbounds i8, ptr %vtable5.i.i.i46, i64 48
  %28 = load ptr, ptr %vfn4.i.i.i48, align 8
  invoke void %28(ptr noundef nonnull align 8 dereferenceable(64) %24)
          to label %_ZN5boost13intrusive_ptrIN8facebook5velox6BufferEED2Ev.exit51 unwind label %terminate.lpad.i42

delete.notnull.i.i.i49:                           ; preds = %.noexc.i43
  %vfn6.i.i.i50 = getelementptr inbounds i8, ptr %vtable5.i.i.i46, i64 8
  %29 = load ptr, ptr %vfn6.i.i.i50, align 8
  tail call void %29(ptr noundef nonnull align 8 dereferenceable(64) %24) #22
  br label %_ZN5boost13intrusive_ptrIN8facebook5velox6BufferEED2Ev.exit51

terminate.lpad.i42:                               ; preds = %if.then2.i.i.i47, %if.then.i.i.i39
  %30 = landingpad { ptr, i32 }
          catch ptr null
  %31 = extractvalue { ptr, i32 } %30, 0
  tail call void @__clang_call_terminate(ptr %31) #23
  unreachable

_ZN5boost13intrusive_ptrIN8facebook5velox6BufferEED2Ev.exit51: ; preds = %_ZN5boost13intrusive_ptrIN8facebook5velox6BufferEED2Ev.exit34, %if.then.i36, %if.then2.i.i.i47, %delete.notnull.i.i.i49
  %newSizes = getelementptr inbounds i8, ptr %this, i64 32
  %32 = load ptr, ptr %newSizes, align 8
  %cmp.not.i52 = icmp eq ptr %32, null
  br i1 %cmp.not.i52, label %_ZN5boost13intrusive_ptrIN8facebook5velox6BufferEED2Ev.exit68, label %if.then.i53

if.then.i53:                                      ; preds = %_ZN5boost13intrusive_ptrIN8facebook5velox6BufferEED2Ev.exit51
  %referenceCount_.i.i.i54 = getelementptr inbounds i8, ptr %32, i64 40
  %33 = atomicrmw sub ptr %referenceCount_.i.i.i54, i32 1 seq_cst, align 4
  %cmp.i.i.i55 = icmp eq i32 %33, 1
  br i1 %cmp.i.i.i55, label %if.then.i.i.i56, label %_ZN5boost13intrusive_ptrIN8facebook5velox6BufferEED2Ev.exit68

if.then.i.i.i56:                                  ; preds = %if.then.i53
  %vtable.i.i.i57 = load ptr, ptr %32, align 8
  %vfn.i.i.i58 = getelementptr inbounds i8, ptr %vtable.i.i.i57, i64 64
  %34 = load ptr, ptr %vfn.i.i.i58, align 8
  invoke void %34(ptr noundef nonnull align 8 dereferenceable(64) %32)
          to label %.noexc.i60 unwind label %terminate.lpad.i59

.noexc.i60:                                       ; preds = %if.then.i.i.i56
  %pool_.i.i.i61 = getelementptr inbounds i8, ptr %32, i64 8
  %35 = load ptr, ptr %pool_.i.i.i61, align 8
  %tobool.not.i.i.i62 = icmp eq ptr %35, null
  %vtable5.i.i.i63 = load ptr, ptr %32, align 8
  br i1 %tobool.not.i.i.i62, label %delete.notnull.i.i.i66, label %if.then2.i.i.i64

if.then2.i.i.i64:                                 ; preds = %.noexc.i60
  %vfn4.i.i.i65 = getelementptr inbounds i8, ptr %vtable5.i.i.i63, i64 48
  %36 = load ptr, ptr %vfn4.i.i.i65, align 8
  invoke void %36(ptr noundef nonnull align 8 dereferenceable(64) %32)
          to label %_ZN5boost13intrusive_ptrIN8facebook5velox6BufferEED2Ev.exit68 unwind label %terminate.lpad.i59

delete.notnull.i.i.i66:                           ; preds = %.noexc.i60
  %vfn6.i.i.i67 = getelementptr inbounds i8, ptr %vtable5.i.i.i63, i64 8
  %37 = load ptr, ptr %vfn6.i.i.i67, align 8
  tail call void %37(ptr noundef nonnull align 8 dereferenceable(64) %32) #22
  br label %_ZN5boost13intrusive_ptrIN8facebook5velox6BufferEED2Ev.exit68

terminate.lpad.i59:                               ; preds = %if.then2.i.i.i64, %if.then.i.i.i56
  %38 = landingpad { ptr, i32 }
          catch ptr null
  %39 = extractvalue { ptr, i32 } %38, 0
  tail call void @__clang_call_terminate(ptr %39) #23
  unreachable

_ZN5boost13intrusive_ptrIN8facebook5velox6BufferEED2Ev.exit68: ; preds = %_ZN5boost13intrusive_ptrIN8facebook5velox6BufferEED2Ev.exit51, %if.then.i53, %if.then2.i.i.i64, %delete.notnull.i.i.i66
  %newOffsets = getelementptr inbounds i8, ptr %this, i64 16
  %40 = load ptr, ptr %newOffsets, align 8
  %cmp.not.i69 = icmp eq ptr %40, null
  br i1 %cmp.not.i69, label %_ZN5boost13intrusive_ptrIN8facebook5velox6BufferEED2Ev.exit85, label %if.then.i70

if.then.i70:                                      ; preds = %_ZN5boost13intrusive_ptrIN8facebook5velox6BufferEED2Ev.exit68
  %referenceCount_.i.i.i71 = getelementptr inbounds i8, ptr %40, i64 40
  %41 = atomicrmw sub ptr %referenceCount_.i.i.i71, i32 1 seq_cst, align 4
  %cmp.i.i.i72 = icmp eq i32 %41, 1
  br i1 %cmp.i.i.i72, label %if.then.i.i.i73, label %_ZN5boost13intrusive_ptrIN8facebook5velox6BufferEED2Ev.exit85

if.then.i.i.i73:                                  ; preds = %if.then.i70
  %vtable.i.i.i74 = load ptr, ptr %40, align 8
  %vfn.i.i.i75 = getelementptr inbounds i8, ptr %vtable.i.i.i74, i64 64
  %42 = load ptr, ptr %vfn.i.i.i75, align 8
  invoke void %42(ptr noundef nonnull align 8 dereferenceable(64) %40)
          to label %.noexc.i77 unwind label %terminate.lpad.i76

.noexc.i77:                                       ; preds = %if.then.i.i.i73
  %pool_.i.i.i78 = getelementptr inbounds i8, ptr %40, i64 8
  %43 = load ptr, ptr %pool_.i.i.i78, align 8
  %tobool.not.i.i.i79 = icmp eq ptr %43, null
  %vtable5.i.i.i80 = load ptr, ptr %40, align 8
  br i1 %tobool.not.i.i.i79, label %delete.notnull.i.i.i83, label %if.then2.i.i.i81

if.then2.i.i.i81:                                 ; preds = %.noexc.i77
  %vfn4.i.i.i82 = getelementptr inbounds i8, ptr %vtable5.i.i.i80, i64 48
  %44 = load ptr, ptr %vfn4.i.i.i82, align 8
  invoke void %44(ptr noundef nonnull align 8 dereferenceable(64) %40)
          to label %_ZN5boost13intrusive_ptrIN8facebook5velox6BufferEED2Ev.exit85 unwind label %terminate.lpad.i76

delete.notnull.i.i.i83:                           ; preds = %.noexc.i77
  %vfn6.i.i.i84 = getelementptr inbounds i8, ptr %vtable5.i.i.i80, i64 8
  %45 = load ptr, ptr %vfn6.i.i.i84, align 8
  tail call void %45(ptr noundef nonnull align 8 dereferenceable(64) %40) #22
  br label %_ZN5boost13intrusive_ptrIN8facebook5velox6BufferEED2Ev.exit85

terminate.lpad.i76:                               ; preds = %if.then2.i.i.i81, %if.then.i.i.i73
  %46 = landingpad { ptr, i32 }
          catch ptr null
  %47 = extractvalue { ptr, i32 } %46, 0
  tail call void @__clang_call_terminate(ptr %47) #23
  unreachable

_ZN5boost13intrusive_ptrIN8facebook5velox6BufferEED2Ev.exit85: ; preds = %_ZN5boost13intrusive_ptrIN8facebook5velox6BufferEED2Ev.exit68, %if.then.i70, %if.then2.i.i.i81, %delete.notnull.i.i.i83
  %48 = load ptr, ptr %this, align 8
  %cmp.not.i86 = icmp eq ptr %48, null
  br i1 %cmp.not.i86, label %_ZN5boost13intrusive_ptrIN8facebook5velox6BufferEED2Ev.exit102, label %if.then.i87

if.then.i87:                                      ; preds = %_ZN5boost13intrusive_ptrIN8facebook5velox6BufferEED2Ev.exit85
  %referenceCount_.i.i.i88 = getelementptr inbounds i8, ptr %48, i64 40
  %49 = atomicrmw sub ptr %referenceCount_.i.i.i88, i32 1 seq_cst, align 4
  %cmp.i.i.i89 = icmp eq i32 %49, 1
  br i1 %cmp.i.i.i89, label %if.then.i.i.i90, label %_ZN5boost13intrusive_ptrIN8facebook5velox6BufferEED2Ev.exit102

if.then.i.i.i90:                                  ; preds = %if.then.i87
  %vtable.i.i.i91 = load ptr, ptr %48, align 8
  %vfn.i.i.i92 = getelementptr inbounds i8, ptr %vtable.i.i.i91, i64 64
  %50 = load ptr, ptr %vfn.i.i.i92, align 8
  invoke void %50(ptr noundef nonnull align 8 dereferenceable(64) %48)
          to label %.noexc.i94 unwind label %terminate.lpad.i93

.noexc.i94:                                       ; preds = %if.then.i.i.i90
  %pool_.i.i.i95 = getelementptr inbounds i8, ptr %48, i64 8
  %51 = load ptr, ptr %pool_.i.i.i95, align 8
  %tobool.not.i.i.i96 = icmp eq ptr %51, null
  %vtable5.i.i.i97 = load ptr, ptr %48, align 8
  br i1 %tobool.not.i.i.i96, label %delete.notnull.i.i.i100, label %if.then2.i.i.i98

if.then2.i.i.i98:                                 ; preds = %.noexc.i94
  %vfn4.i.i.i99 = getelementptr inbounds i8, ptr %vtable5.i.i.i97, i64 48
  %52 = load ptr, ptr %vfn4.i.i.i99, align 8
  invoke void %52(ptr noundef nonnull align 8 dereferenceable(64) %48)
          to label %_ZN5boost13intrusive_ptrIN8facebook5velox6BufferEED2Ev.exit102 unwind label %terminate.lpad.i93

delete.notnull.i.i.i100:                          ; preds = %.noexc.i94
  %vfn6.i.i.i101 = getelementptr inbounds i8, ptr %vtable5.i.i.i97, i64 8
  %53 = load ptr, ptr %vfn6.i.i.i101, align 8
  tail call void %53(ptr noundef nonnull align 8 dereferenceable(64) %48) #22
  br label %_ZN5boost13intrusive_ptrIN8facebook5velox6BufferEED2Ev.exit102

terminate.lpad.i93:                               ; preds = %if.then2.i.i.i98, %if.then.i.i.i90
  %54 = landingpad { ptr, i32 }
          catch ptr null
  %55 = extractvalue { ptr, i32 } %54, 0
  tail call void @__clang_call_terminate(ptr %55) #23
  unreachable

_ZN5boost13intrusive_ptrIN8facebook5velox6BufferEED2Ev.exit102: ; preds = %_ZN5boost13intrusive_ptrIN8facebook5velox6BufferEED2Ev.exit85, %if.then.i87, %if.then2.i.i.i98, %delete.notnull.i.i.i100
  ret void
}